target datalayout = "e-m:e-p270:32:32-p271:32:32-p272:64:64-i64:64-i128:128-f80:128-n8:16:32:64-S128"
target triple = "x86_64-pc-linux-gnu"

%struct._BBuf = type { ptr, i32, i32 }

; Function Attrs: nounwind uwtable
define internal void @bbuf_free(ptr noundef %0) #0 {
  %2 = alloca ptr, align 8
  store ptr %0, ptr %2, align 8, !tbaa !123
  %3 = load ptr, ptr %2, align 8, !tbaa !123
  %4 = icmp ne ptr %3, null
  br i1 %4, label %5, label %16

5:                                                ; preds = %1
  %6 = load ptr, ptr %2, align 8, !tbaa !123
  %7 = getelementptr inbounds nuw %struct._BBuf, ptr %6, i32 0, i32 0
  %8 = load ptr, ptr %7, align 8, !tbaa !127
  %9 = icmp ne ptr %8, null
  br i1 %9, label %10, label %14

10:                                               ; preds = %5
  %11 = load ptr, ptr %2, align 8, !tbaa !123
  %12 = getelementptr inbounds nuw %struct._BBuf, ptr %11, i32 0, i32 0
  %13 = load ptr, ptr %12, align 8, !tbaa !127
  call void @free(ptr noundef %13) #8
  br label %14

14:                                               ; preds = %10, %5
  %15 = load ptr, ptr %2, align 8, !tbaa !123
  call void @free(ptr noundef %15) #8
  br label %16

16:                                               ; preds = %14, %1
  ret void
}