; Function Attrs: mustprogress nounwind willreturn uwtable
define internal fastcc void @bbuf_free(ptr noundef captures(address_is_null) %0) unnamed_addr #15 {
  %.not = icmp eq ptr %0, null
  br i1 %.not, label %6, label %2

2:                                                ; preds = %1
  %3 = load ptr, ptr %0, align 8, !tbaa !108
  %.not5 = icmp eq ptr %3, null
  br i1 %.not5, label %5, label %4

4:                                                ; preds = %2
  tail call void @free(ptr noundef nonnull %3) #25
  br label %5

5:                                                ; preds = %4, %2
  tail call void @free(ptr noundef nonnull %0) #25
  br label %6

6:                                                ; preds = %5, %1
  ret void
}